; Function Attrs: mustprogress nofree norecurse nosync nounwind willreturn memory(argmem: read) uwtable
define noundef i64 @_ZN6duckdb7roaring20RoaringCompressState17GetRemainingSpaceEv(ptr noundef nonnull readonly align 8 captures(none) dereferenceable(1144) %0) local_unnamed_addr #9 align 2 {
  %2 = getelementptr inbounds nuw i8, ptr %0, i64 1128
  %3 = load ptr, ptr %2, align 8, !tbaa !394
  %4 = getelementptr inbounds nuw i8, ptr %0, i64 1120
  %5 = load ptr, ptr %4, align 8, !tbaa !393
  %6 = ptrtoint ptr %3 to i64
  %7 = ptrtoint ptr %5 to i64
  %8 = sub i64 %6, %7
  ret i64 %8
}